target datalayout = "e-m:e-p270:32:32-p271:32:32-p272:64:64-i64:64-i128:128-f80:128-n8:16:32:64-S128"
target triple = "x86_64-pc-linux-gnu"

%struct.ssl_hmac_st = type { ptr, ptr }

; Function Attrs: nounwind uwtable
define i32 @ssl_hmac_final(ptr noundef %0, ptr noundef %1, ptr noundef %2, i64 noundef %3) #1 {
  %5 = alloca i32, align 4
  %6 = alloca ptr, align 8
  %7 = alloca ptr, align 8
  %8 = alloca ptr, align 8
  %9 = alloca i64, align 8
  store ptr %0, ptr %6, align 8, !tbaa !289
  store ptr %1, ptr %7, align 8, !tbaa !172
  store ptr %2, ptr %8, align 8, !tbaa !136
  store i64 %3, ptr %9, align 8, !tbaa !3
  %10 = load ptr, ptr %6, align 8, !tbaa !289
  %11 = getelementptr inbounds nuw %struct.ssl_hmac_st, ptr %10, i32 0, i32 0
  %12 = load ptr, ptr %11, align 8, !tbaa !308
  %13 = icmp ne ptr %12, null
  br i1 %13, label %14, label %22

14:                                               ; preds = %4
  %15 = load ptr, ptr %6, align 8, !tbaa !289
  %16 = getelementptr inbounds nuw %struct.ssl_hmac_st, ptr %15, i32 0, i32 0
  %17 = load ptr, ptr %16, align 8, !tbaa !308
  %18 = load ptr, ptr %7, align 8, !tbaa !172
  %19 = load ptr, ptr %8, align 8, !tbaa !136
  %20 = load i64, ptr %9, align 8, !tbaa !3
  %21 = call i32 @EVP_MAC_final(ptr noundef %17, ptr noundef %18, ptr noundef %19, i64 noundef %20)
  store i32 %21, ptr %5, align 4
  br label %33

22:                                               ; preds = %4
  %23 = load ptr, ptr %6, align 8, !tbaa !289
  %24 = getelementptr inbounds nuw %struct.ssl_hmac_st, ptr %23, i32 0, i32 1
  %25 = load ptr, ptr %24, align 8, !tbaa !315
  %26 = icmp ne ptr %25, null
  br i1 %26, label %27, label %32

27:                                               ; preds = %22
  %28 = load ptr, ptr %6, align 8, !tbaa !289
  %29 = load ptr, ptr %7, align 8, !tbaa !172
  %30 = load ptr, ptr %8, align 8, !tbaa !136
  %31 = call i32 @ssl_hmac_old_final(ptr noundef %28, ptr noundef %29, ptr noundef %30)
  store i32 %31, ptr %5, align 4
  br label %33

32:                                               ; preds = %22
  store i32 0, ptr %5, align 4
  br label %33

33:                                               ; preds = %32, %27, %14
  %34 = load i32, ptr %5, align 4
  ret i32 %34
}