; Function Attrs: nounwind uwtable
define i32 @ssl_hmac_final(ptr noundef %0, ptr noundef %1, ptr noundef %2, i64 noundef %3) local_unnamed_addr #2 {
  %5 = load ptr, ptr %0, align 8, !tbaa !257
  %.not = icmp eq ptr %5, null
  br i1 %.not, label %8, label %6

6:                                                ; preds = %4
  %7 = tail call i32 @EVP_MAC_final(ptr noundef nonnull %5, ptr noundef %1, ptr noundef %2, i64 noundef %3) #14
  br label %13

8:                                                ; preds = %4
  %9 = getelementptr inbounds nuw i8, ptr %0, i64 8
  %10 = load ptr, ptr %9, align 8, !tbaa !262
  %.not10 = icmp eq ptr %10, null
  br i1 %.not10, label %13, label %11

11:                                               ; preds = %8
  %12 = tail call i32 @ssl_hmac_old_final(ptr noundef nonnull %0, ptr noundef %1, ptr noundef %2) #14
  br label %13

13:                                               ; preds = %8, %11, %6
  %.0 = phi i32 [ %7, %6 ], [ %12, %11 ], [ 0, %8 ]
  ret i32 %.0
}